; Function Attrs: nounwind uwtable
define internal noundef i32 @OnUpdateJit(ptr noundef %0, ptr noundef %1, ptr noundef %2, ptr noundef %3, ptr noundef %4, i32 noundef %5) #0 {
  %7 = tail call i32 @OnUpdateBool(ptr noundef %0, ptr noundef %1, ptr noundef %2, ptr noundef %3, ptr noundef %4, i32 noundef %5) #24
  %8 = load i8, ptr getelementptr inbounds nuw (i8, ptr @pcre_globals, i64 72), align 8, !tbaa !53, !range !54, !noundef !45
  %9 = trunc nuw i8 %8 to i1
  %10 = load ptr, ptr @jit_stack, align 8
  %11 = load ptr, ptr @mctx, align 8, !tbaa !94
  %. = select i1 %9, ptr %10, ptr null
  tail call void @php_pcre2_jit_stack_assign(ptr noundef %11, ptr noundef null, ptr noundef %.) #24
  ret i32 0
}